; Function Attrs: nounwind sspstrong uwtable
define internal i64 @file_size(i64 noundef %0) #0 {
  %2 = tail call i64 @rb_file_size(i64 noundef %0)
  %3 = add i64 %2, 4611686018427387904
  %or.cond.i = icmp sgt i64 %3, -1
  br i1 %or.cond.i, label %4, label %7

4:                                                ; preds = %1
  %5 = shl nsw i64 %2, 1
  %6 = or disjoint i64 %5, 1
  br label %rb_long2num_inline.exit

7:                                                ; preds = %1
  %8 = tail call i64 @rb_int2big(i64 noundef %2) #22
  br label %rb_long2num_inline.exit

rb_long2num_inline.exit:                          ; preds = %4, %7
  %.0.i = phi i64 [ %6, %4 ], [ %8, %7 ]
  ret i64 %.0.i
}